target datalayout = "e-m:e-p270:32:32-p271:32:32-p272:64:64-i64:64-i128:128-f80:128-n8:16:32:64-S128"
target triple = "x86_64-pc-linux-gnu"

%"class.sat::asymm_branch" = type { ptr, %class.params_ref, i64, %class.random_gen, i32, i32, i8, i32, i32, i8, i8, i64, i32, i32, i32, %class.svector, %class.svector, %class.svector.0, %class.svector.0, %class.svector, %class.svector }
%class.params_ref = type { ptr }
%class.random_gen = type { i32 }
%class.svector.0 = type { %class.vector.1 }
%class.vector.1 = type { ptr }
%class.svector = type { %class.vector }
%class.vector = type { ptr }

@.str.9 = private unnamed_addr constant [18 x i8] c"sat elim literals\00", align 1
@.str.10 = private unnamed_addr constant [7 x i8] c"sat tr\00", align 1

; Function Attrs: mustprogress uwtable
define hidden void @_ZNK3sat12asymm_branch18collect_statisticsER10statistics(ptr noundef nonnull align 8 dereferenceable(128) %0, ptr noundef nonnull align 8 dereferenceable(16) %1) #4 align 2 {
  %3 = alloca ptr, align 8
  %4 = alloca ptr, align 8
  store ptr %0, ptr %3, align 8, !tbaa !3
  store ptr %1, ptr %4, align 8, !tbaa !272
  %5 = load ptr, ptr %3, align 8
  %6 = load ptr, ptr %4, align 8, !tbaa !272
  %7 = getelementptr inbounds nuw %"class.sat::asymm_branch", ptr %5, i32 0, i32 12
  %8 = load i32, ptr %7, align 8, !tbaa !42
  call void @_ZN10statistics6updateEPKcj(ptr noundef nonnull align 8 dereferenceable(16) %6, ptr noundef @.str.9, i32 noundef %8)
  %9 = load ptr, ptr %4, align 8, !tbaa !272
  %10 = getelementptr inbounds nuw %"class.sat::asymm_branch", ptr %5, i32 0, i32 14
  %11 = load i32, ptr %10, align 8, !tbaa !44
  call void @_ZN10statistics6updateEPKcj(ptr noundef nonnull align 8 dereferenceable(16) %9, ptr noundef @.str.10, i32 noundef %11)
  ret void
}